; Function Attrs: mustprogress nounwind uwtable
define hidden noundef i64 @_ZN33FastUnorderedElapsedCounterSource11nanosecondsEl(i64 noundef %0) local_unnamed_addr #0 align 2 {
  %2 = sitofp i64 %0 to double
  %3 = tail call noundef i64 @_ZN33FastUnorderedElapsedCounterSource9frequencyEv()
  %4 = uitofp i64 %3 to double
  %5 = fdiv double 1.000000e+09, %4
  %6 = fmul double %5, %2
  %7 = fptoui double %6 to i64
  ret i64 %7
}